target datalayout = "e-m:e-p270:32:32-p271:32:32-p272:64:64-i64:64-i128:128-f80:128-n8:16:32:64-S128"
target triple = "x86_64-pc-linux-gnu"

%"class.datalog::rule_properties" = type <{ ptr, ptr, ptr, ptr, %"class.datatype::util", %"class.datalog::dl_decl_util", %class.arith_util, %class.bv_util, %class.array_util, %"class.recfun::util", i8, [7 x i8], ptr, %class.obj_map, %class.obj_map.1, %class.ptr_vector, %class.ptr_vector, %class.ptr_vector, i8, i8, [6 x i8] }>
%"class.datatype::util" = type { ptr, i32, ptr }
%"class.datalog::dl_decl_util" = type <{ ptr, %class.scoped_ptr, %class.scoped_ptr.0, i32, [4 x i8] }>
%class.scoped_ptr = type { ptr }
%class.scoped_ptr.0 = type { ptr }
%class.arith_util = type { ptr, ptr }
%class.bv_util = type { %class.bv_recognizers, ptr, ptr }
%class.bv_recognizers = type { i32 }
%class.array_util = type { %class.array_recognizers, ptr }
%class.array_recognizers = type { i32 }
%"class.recfun::util" = type { ptr, i32, ptr }
%class.obj_map = type { %class.core_hashtable }
%class.core_hashtable = type <{ ptr, i32, i32, i32, [4 x i8] }>
%class.obj_map.1 = type { %class.core_hashtable.2 }
%class.core_hashtable.2 = type <{ ptr, i32, i32, i32, [4 x i8] }>
%class.ptr_vector = type { %class.vector }
%class.vector = type { ptr }
%class.vector.129 = type { ptr }
%class.symbol = type { ptr }
%class.decl = type { %class.ast, %class.symbol, ptr }
%class.ast = type { i32, i32, i32, i32 }
%class.expr = type { %class.ast }
%class.app = type { %class.expr, ptr, i32, %struct.app_flags, [0 x ptr] }
%struct.app_flags = type <{ i16, i8, i8 }>
%class.anon = type { ptr, ptr, ptr, ptr }
%class.decl_info = type <{ i32, i32, %class.vector.149, i8, [7 x i8] }>
%class.vector.149 = type { ptr }

; Function Attrs: mustprogress nounwind uwtable
define linkonce_odr hidden noundef zeroext i1 @_ZNK9decl_info10is_decl_ofEii(ptr noundef nonnull align 8 dereferenceable(17) %0, i32 noundef %1, i32 noundef %2) #5 comdat align 2 {
  %4 = alloca ptr, align 8
  %5 = alloca i32, align 4
  %6 = alloca i32, align 4
  store ptr %0, ptr %4, align 8, !tbaa !429
  store i32 %1, ptr %5, align 4, !tbaa !64
  store i32 %2, ptr %6, align 4, !tbaa !64
  %7 = load ptr, ptr %4, align 8
  %8 = getelementptr inbounds nuw %class.decl_info, ptr %7, i32 0, i32 0
  %9 = load i32, ptr %8, align 8, !tbaa !430
  %10 = load i32, ptr %5, align 4, !tbaa !64
  %11 = icmp eq i32 %9, %10
  br i1 %11, label %12, label %17

12:                                               ; preds = %3
  %13 = load i32, ptr %6, align 4, !tbaa !64
  %14 = getelementptr inbounds nuw %class.decl_info, ptr %7, i32 0, i32 1
  %15 = load i32, ptr %14, align 4, !tbaa !434
  %16 = icmp eq i32 %13, %15
  br label %17

17:                                               ; preds = %12, %3
  %18 = phi i1 [ false, %3 ], [ %16, %12 ]
  ret i1 %18
}

; Function Attrs: mustprogress uwtable
define linkonce_odr hidden noundef zeroext i1 @_ZNK4decl10is_decl_ofEii(ptr noundef nonnull align 8 dereferenceable(32) %0, i32 noundef %1, i32 noundef %2) #4 comdat align 2 {
  %4 = alloca ptr, align 8
  %5 = alloca i32, align 4
  %6 = alloca i32, align 4
  store ptr %0, ptr %4, align 8, !tbaa !143
  store i32 %1, ptr %5, align 4, !tbaa !64
  store i32 %2, ptr %6, align 4, !tbaa !64
  %7 = load ptr, ptr %4, align 8
  %8 = getelementptr inbounds nuw %class.decl, ptr %7, i32 0, i32 2
  %9 = load ptr, ptr %8, align 8, !tbaa !428
  %10 = icmp ne ptr %9, null
  br i1 %10, label %11, label %17

11:                                               ; preds = %3
  %12 = getelementptr inbounds nuw %class.decl, ptr %7, i32 0, i32 2
  %13 = load ptr, ptr %12, align 8, !tbaa !428
  %14 = load i32, ptr %5, align 4, !tbaa !64
  %15 = load i32, ptr %6, align 4, !tbaa !64
  %16 = call noundef zeroext i1 @_ZNK9decl_info10is_decl_ofEii(ptr noundef nonnull align 8 dereferenceable(17) %13, i32 noundef %14, i32 noundef %15)
  br label %17

17:                                               ; preds = %11, %3
  %18 = phi i1 [ false, %3 ], [ %16, %11 ]
  ret i1 %18
}

; Function Attrs: mustprogress uwtable
define linkonce_odr hidden noundef zeroext i1 @_ZNK3app9is_app_ofEii(ptr noundef nonnull align 8 dereferenceable(32) %0, i32 noundef %1, i32 noundef %2) #4 comdat align 2 {
  %4 = alloca ptr, align 8
  %5 = alloca i32, align 4
  %6 = alloca i32, align 4
  store ptr %0, ptr %4, align 8, !tbaa !96
  store i32 %1, ptr %5, align 4, !tbaa !64
  store i32 %2, ptr %6, align 4, !tbaa !64
  %7 = load ptr, ptr %4, align 8
  %8 = getelementptr inbounds nuw %class.app, ptr %7, i32 0, i32 1
  %9 = load ptr, ptr %8, align 8, !tbaa !279
  %10 = load i32, ptr %5, align 4, !tbaa !64
  %11 = load i32, ptr %6, align 4, !tbaa !64
  %12 = call noundef zeroext i1 @_ZNK4decl10is_decl_ofEii(ptr noundef nonnull align 8 dereferenceable(32) %9, i32 noundef %10, i32 noundef %11)
  ret i1 %12
}

; Function Attrs: inlinehint mustprogress uwtable
define linkonce_odr hidden noundef zeroext i1 @_Z9is_app_ofPK4exprii(ptr noundef %0, i32 noundef %1, i32 noundef %2) #8 comdat {
  %4 = alloca ptr, align 8
  %5 = alloca i32, align 4
  %6 = alloca i32, align 4
  store ptr %0, ptr %4, align 8, !tbaa !84
  store i32 %1, ptr %5, align 4, !tbaa !64
  store i32 %2, ptr %6, align 4, !tbaa !64
  %7 = load ptr, ptr %4, align 8, !tbaa !84
  %8 = call noundef i32 @_ZNK3ast8get_kindEv(ptr noundef nonnull align 4 dereferenceable(16) %7)
  %9 = icmp eq i32 %8, 0
  br i1 %9, label %10, label %16

10:                                               ; preds = %3
  %11 = load ptr, ptr %4, align 8, !tbaa !84
  %12 = call noundef ptr @_Z6to_appPK3ast(ptr noundef %11)
  %13 = load i32, ptr %5, align 4, !tbaa !64
  %14 = load i32, ptr %6, align 4, !tbaa !64
  %15 = call noundef zeroext i1 @_ZNK3app9is_app_ofEii(ptr noundef nonnull align 8 dereferenceable(32) %12, i32 noundef %13, i32 noundef %14)
  br label %16

16:                                               ; preds = %10, %3
  %17 = phi i1 [ false, %3 ], [ %15, %10 ]
  ret i1 %17
}

; Function Attrs: mustprogress nounwind uwtable
define linkonce_odr hidden noundef i32 @_ZNK3ast8get_kindEv(ptr noundef nonnull align 4 dereferenceable(16) %0) #5 comdat align 2 {
  %2 = alloca ptr, align 8
  store ptr %0, ptr %2, align 8, !tbaa !180
  %3 = load ptr, ptr %2, align 8
  %4 = getelementptr inbounds nuw %class.ast, ptr %3, i32 0, i32 1
  %5 = load i32, ptr %4, align 4
  %6 = and i32 %5, 65535
  ret i32 %6
}

; Function Attrs: mustprogress uwtable
define linkonce_odr hidden noundef zeroext i1 @_ZNK8datatype4util5is_isEPK3app(ptr noundef nonnull align 8 dereferenceable(24) %0, ptr noundef %1) #4 comdat align 2 {
  %3 = alloca ptr, align 8
  %4 = alloca ptr, align 8
  store ptr %0, ptr %3, align 8, !tbaa !311
  store ptr %1, ptr %4, align 8, !tbaa !96
  %5 = load ptr, ptr %3, align 8
  %6 = load ptr, ptr %4, align 8, !tbaa !96
  %7 = call noundef i32 @_ZNK8datatype4util3fidEv(ptr noundef nonnull align 8 dereferenceable(24) %5)
  %8 = call noundef zeroext i1 @_Z9is_app_ofPK4exprii(ptr noundef %6, i32 noundef %7, i32 noundef 2)
  ret i1 %8
}

; Function Attrs: mustprogress uwtable
define linkonce_odr hidden noundef zeroext i1 @_ZNK8datatype4util14is_recognizer0EPK3app(ptr noundef nonnull align 8 dereferenceable(24) %0, ptr noundef %1) #4 comdat align 2 {
  %3 = alloca ptr, align 8
  %4 = alloca ptr, align 8
  store ptr %0, ptr %3, align 8, !tbaa !311
  store ptr %1, ptr %4, align 8, !tbaa !96
  %5 = load ptr, ptr %3, align 8
  %6 = load ptr, ptr %4, align 8, !tbaa !96
  %7 = call noundef i32 @_ZNK8datatype4util3fidEv(ptr noundef nonnull align 8 dereferenceable(24) %5)
  %8 = call noundef zeroext i1 @_Z9is_app_ofPK4exprii(ptr noundef %6, i32 noundef %7, i32 noundef 1)
  ret i1 %8
}

; Function Attrs: inlinehint mustprogress nounwind uwtable
define linkonce_odr hidden noundef ptr @_Z6to_appPK3ast(ptr noundef %0) #6 comdat {
  %2 = alloca ptr, align 8
  store ptr %0, ptr %2, align 8, !tbaa !180
  %3 = load ptr, ptr %2, align 8, !tbaa !180
  ret ptr %3
}

; Function Attrs: inlinehint mustprogress nounwind uwtable
define linkonce_odr hidden noundef zeroext i1 @_Z6is_appPK3ast(ptr noundef %0) #6 comdat {
  %2 = alloca ptr, align 8
  store ptr %0, ptr %2, align 8, !tbaa !180
  %3 = load ptr, ptr %2, align 8, !tbaa !180
  %4 = call noundef i32 @_ZNK3ast8get_kindEv(ptr noundef nonnull align 4 dereferenceable(16) %3)
  %5 = icmp eq i32 %4, 0
  ret i1 %5
}

; Function Attrs: mustprogress uwtable
define linkonce_odr hidden noundef nonnull align 8 dereferenceable(8) ptr @_ZN6vectorIP9func_declLb0EjE9push_backERKS1_(ptr noundef nonnull align 8 dereferenceable(8) %0, ptr noundef nonnull align 8 dereferenceable(8) %1) #4 comdat align 2 {
  %3 = alloca ptr, align 8
  %4 = alloca ptr, align 8
  store ptr %0, ptr %3, align 8, !tbaa !275
  store ptr %1, ptr %4, align 8, !tbaa !257
  %5 = load ptr, ptr %3, align 8
  %6 = getelementptr inbounds nuw %class.vector.129, ptr %5, i32 0, i32 0
  %7 = load ptr, ptr %6, align 8, !tbaa !277
  %8 = icmp eq ptr %7, null
  br i1 %8, label %19, label %9

9:                                                ; preds = %2
  %10 = getelementptr inbounds nuw %class.vector.129, ptr %5, i32 0, i32 0
  %11 = load ptr, ptr %10, align 8, !tbaa !277
  %12 = getelementptr inbounds i32, ptr %11, i64 -1
  %13 = load i32, ptr %12, align 4, !tbaa !64
  %14 = getelementptr inbounds nuw %class.vector.129, ptr %5, i32 0, i32 0
  %15 = load ptr, ptr %14, align 8, !tbaa !277
  %16 = getelementptr inbounds i32, ptr %15, i64 -2
  %17 = load i32, ptr %16, align 4, !tbaa !64
  %18 = icmp eq i32 %13, %17
  br i1 %18, label %19, label %20

19:                                               ; preds = %9, %2
  call void @_ZN6vectorIP9func_declLb0EjE13expand_vectorEv(ptr noundef nonnull align 8 dereferenceable(8) %5)
  br label %20

20:                                               ; preds = %19, %9
  %21 = getelementptr inbounds nuw %class.vector.129, ptr %5, i32 0, i32 0
  %22 = load ptr, ptr %21, align 8, !tbaa !277
  %23 = getelementptr inbounds nuw %class.vector.129, ptr %5, i32 0, i32 0
  %24 = load ptr, ptr %23, align 8, !tbaa !277
  %25 = getelementptr inbounds i32, ptr %24, i64 -1
  %26 = load i32, ptr %25, align 4, !tbaa !64
  %27 = zext i32 %26 to i64
  %28 = getelementptr inbounds nuw ptr, ptr %22, i64 %27
  %29 = load ptr, ptr %4, align 8, !tbaa !257
  %30 = load ptr, ptr %29, align 8, !tbaa !98
  store ptr %30, ptr %28, align 8, !tbaa !98
  %31 = getelementptr inbounds nuw %class.vector.129, ptr %5, i32 0, i32 0
  %32 = load ptr, ptr %31, align 8, !tbaa !277
  %33 = getelementptr inbounds i32, ptr %32, i64 -1
  %34 = load i32, ptr %33, align 4, !tbaa !64
  %35 = add i32 %34, 1
  store i32 %35, ptr %33, align 4, !tbaa !64
  ret ptr %5
}

; Function Attrs: mustprogress nounwind uwtable
define linkonce_odr hidden noundef ptr @_ZNK3app8get_declEv(ptr noundef nonnull align 8 dereferenceable(32) %0) #5 comdat align 2 {
  %2 = alloca ptr, align 8
  store ptr %0, ptr %2, align 8, !tbaa !96
  %3 = load ptr, ptr %2, align 8
  %4 = getelementptr inbounds nuw %class.app, ptr %3, i32 0, i32 1
  %5 = load ptr, ptr %4, align 8, !tbaa !279
  ret ptr %5
}

; Function Attrs: inlinehint mustprogress nounwind uwtable
define linkonce_odr hidden noundef ptr @_Z6to_appP3ast(ptr noundef %0) #6 comdat {
  %2 = alloca ptr, align 8
  store ptr %0, ptr %2, align 8, !tbaa !180
  %3 = load ptr, ptr %2, align 8, !tbaa !180
  ret ptr %3
}

; Function Attrs: mustprogress nounwind uwtable
define linkonce_odr hidden noundef ptr @_ZNK3app7get_argEj(ptr noundef nonnull align 8 dereferenceable(32) %0, i32 noundef %1) #5 comdat align 2 {
  %3 = alloca ptr, align 8
  %4 = alloca i32, align 4
  store ptr %0, ptr %3, align 8, !tbaa !96
  store i32 %1, ptr %4, align 4, !tbaa !64
  %5 = load ptr, ptr %3, align 8
  %6 = getelementptr inbounds nuw %class.app, ptr %5, i32 0, i32 4
  %7 = load i32, ptr %4, align 4, !tbaa !64
  %8 = zext i32 %7 to i64
  %9 = getelementptr inbounds nuw [0 x ptr], ptr %6, i64 0, i64 %8
  %10 = load ptr, ptr %9, align 8, !tbaa !84
  ret ptr %10
}

; Function Attrs: mustprogress uwtable
define linkonce_odr hidden noundef zeroext i1 @_ZNK8datatype4util13is_recognizerEPK4expr(ptr noundef nonnull align 8 dereferenceable(24) %0, ptr noundef %1) #4 comdat align 2 {
  %3 = alloca ptr, align 8
  %4 = alloca ptr, align 8
  store ptr %0, ptr %3, align 8, !tbaa !311
  store ptr %1, ptr %4, align 8, !tbaa !84
  %5 = load ptr, ptr %3, align 8
  %6 = load ptr, ptr %4, align 8, !tbaa !84
  %7 = call noundef zeroext i1 @_Z6is_appPK3ast(ptr noundef %6)
  br i1 %7, label %8, label %18

8:                                                ; preds = %2
  %9 = load ptr, ptr %4, align 8, !tbaa !84
  %10 = call noundef ptr @_Z6to_appPK3ast(ptr noundef %9)
  %11 = call noundef zeroext i1 @_ZNK8datatype4util14is_recognizer0EPK3app(ptr noundef nonnull align 8 dereferenceable(24) %5, ptr noundef %10)
  br i1 %11, label %16, label %12

12:                                               ; preds = %8
  %13 = load ptr, ptr %4, align 8, !tbaa !84
  %14 = call noundef ptr @_Z6to_appPK3ast(ptr noundef %13)
  %15 = call noundef zeroext i1 @_ZNK8datatype4util5is_isEPK3app(ptr noundef nonnull align 8 dereferenceable(24) %5, ptr noundef %14)
  br label %16

16:                                               ; preds = %12, %8
  %17 = phi i1 [ true, %8 ], [ %15, %12 ]
  br label %18

18:                                               ; preds = %16, %2
  %19 = phi i1 [ false, %2 ], [ %17, %16 ]
  ret i1 %19
}

; Function Attrs: inlinehint mustprogress uwtable
define internal void @"_ZZN7datalog15rule_properties14check_accessorEP3appENK3$_0clEP4expr"(ptr noundef nonnull align 8 dereferenceable(32) %0, ptr noundef %1) #8 align 2 {
  %3 = alloca ptr, align 8
  %4 = alloca ptr, align 8
  %5 = alloca ptr, align 8
  %6 = alloca i32, align 4
  store ptr %0, ptr %3, align 8, !tbaa !261
  store ptr %1, ptr %4, align 8, !tbaa !84
  %7 = load ptr, ptr %3, align 8
  %8 = getelementptr inbounds nuw %class.anon, ptr %7, i32 0, i32 0
  %9 = load ptr, ptr %8, align 8, !tbaa !251
  %10 = getelementptr inbounds nuw %"class.datalog::rule_properties", ptr %9, i32 0, i32 4
  %11 = load ptr, ptr %4, align 8, !tbaa !84
  %12 = call noundef zeroext i1 @_ZNK8datatype4util13is_recognizerEPK4expr(ptr noundef nonnull align 8 dereferenceable(24) %10, ptr noundef %11)
  br i1 %12, label %14, label %13

13:                                               ; preds = %2
  br label %42

14:                                               ; preds = %2
  %15 = getelementptr inbounds nuw %class.anon, ptr %7, i32 0, i32 1
  %16 = load ptr, ptr %15, align 8, !tbaa !301
  %17 = load ptr, ptr %16, align 8, !tbaa !96
  %18 = call noundef ptr @_ZNK3app7get_argEj(ptr noundef nonnull align 8 dereferenceable(32) %17, i32 noundef 0)
  %19 = load ptr, ptr %4, align 8, !tbaa !84
  %20 = call noundef ptr @_Z6to_appP3ast(ptr noundef %19)
  %21 = call noundef ptr @_ZNK3app7get_argEj(ptr noundef nonnull align 8 dereferenceable(32) %20, i32 noundef 0)
  %22 = icmp ne ptr %18, %21
  br i1 %22, label %23, label %24

23:                                               ; preds = %14
  br label %42

24:                                               ; preds = %14
  call void @llvm.lifetime.start.p0(i64 8, ptr %5) #3
  %25 = getelementptr inbounds nuw %"class.datalog::rule_properties", ptr %9, i32 0, i32 4
  %26 = load ptr, ptr %4, align 8, !tbaa !84
  %27 = call noundef ptr @_Z6to_appP3ast(ptr noundef %26)
  %28 = call noundef ptr @_ZNK3app8get_declEv(ptr noundef nonnull align 8 dereferenceable(32) %27)
  %29 = call noundef ptr @_ZNK8datatype4util26get_recognizer_constructorEP9func_decl(ptr noundef nonnull align 8 dereferenceable(24) %25, ptr noundef %28)
  store ptr %29, ptr %5, align 8, !tbaa !98
  %30 = getelementptr inbounds nuw %class.anon, ptr %7, i32 0, i32 2
  %31 = load ptr, ptr %30, align 8, !tbaa !302
  %32 = load ptr, ptr %31, align 8, !tbaa !98
  %33 = load ptr, ptr %5, align 8, !tbaa !98
  %34 = icmp eq ptr %32, %33
  br i1 %34, label %35, label %36

35:                                               ; preds = %24
  store i32 1, ptr %6, align 4
  br label %40

36:                                               ; preds = %24
  %37 = getelementptr inbounds nuw %class.anon, ptr %7, i32 0, i32 3
  %38 = load ptr, ptr %37, align 8, !tbaa !303
  %39 = call noundef nonnull align 8 dereferenceable(8) ptr @_ZN6vectorIP9func_declLb0EjE9push_backERKS1_(ptr noundef nonnull align 8 dereferenceable(8) %38, ptr noundef nonnull align 8 dereferenceable(8) %5)
  store i32 0, ptr %6, align 4
  br label %40

40:                                               ; preds = %36, %35
  call void @llvm.lifetime.end.p0(i64 8, ptr %5) #3
  %41 = load i32, ptr %6, align 4
  switch i32 %41, label %43 [
    i32 0, label %42
    i32 1, label %42
  ]

42:                                               ; preds = %13, %23, %40, %40
  ret void

43:                                               ; preds = %40
  unreachable
}