; Function Attrs: inlinehint mustprogress uwtable
define internal fastcc void @"_ZZN7datalog15rule_properties14check_accessorEP3appENK3$_0clEP4expr"(ptr noundef nonnull readonly align 8 captures(none) dereferenceable(32) %0, ptr noundef readonly captures(none) %1) unnamed_addr #9 align 2 {
  %3 = load ptr, ptr %0, align 8, !tbaa !254
  %4 = getelementptr inbounds nuw i8, ptr %3, i64 32
  %5 = getelementptr inbounds nuw i8, ptr %1, i64 4
  %6 = load i32, ptr %5, align 4
  %7 = and i32 %6, 65535
  %8 = icmp eq i32 %7, 0
  br i1 %8, label %9, label %_ZNK8datatype4util13is_recognizerEPK4expr.exit.thread

9:                                                ; preds = %2
  %10 = tail call noundef i32 @_ZNK8datatype4util3fidEv(ptr noundef nonnull align 8 dereferenceable(24) %4)
  %11 = load i32, ptr %5, align 4
  %12 = and i32 %11, 65535
  %13 = icmp eq i32 %12, 0
  br i1 %13, label %14, label %_ZNK8datatype4util14is_recognizer0EPK3app.exit.thread.i

14:                                               ; preds = %9
  %15 = getelementptr inbounds nuw i8, ptr %1, i64 16
  %16 = load ptr, ptr %15, align 8, !tbaa !96
  %17 = getelementptr inbounds nuw i8, ptr %16, i64 24
  %18 = load ptr, ptr %17, align 8, !tbaa !107
  %.not.i.i.i.i.i = icmp eq ptr %18, null
  br i1 %.not.i.i.i.i.i, label %_ZNK8datatype4util14is_recognizer0EPK3app.exit.thread.i, label %_ZNK8datatype4util14is_recognizer0EPK3app.exit.i

_ZNK8datatype4util14is_recognizer0EPK3app.exit.i: ; preds = %14
  %19 = load i32, ptr %18, align 8, !tbaa !111
  %20 = icmp eq i32 %19, %10
  %21 = getelementptr inbounds nuw i8, ptr %18, i64 4
  %22 = load i32, ptr %21, align 4
  %23 = icmp eq i32 %22, 1
  %24 = select i1 %20, i1 %23, i1 false
  br i1 %24, label %_ZNK8datatype4util13is_recognizerEPK4expr.exit.thread4, label %_ZNK8datatype4util14is_recognizer0EPK3app.exit.thread.i

_ZNK8datatype4util14is_recognizer0EPK3app.exit.thread.i: ; preds = %_ZNK8datatype4util14is_recognizer0EPK3app.exit.i, %14, %9
  %25 = tail call noundef i32 @_ZNK8datatype4util3fidEv(ptr noundef nonnull align 8 dereferenceable(24) %4)
  %26 = load i32, ptr %5, align 4
  %27 = and i32 %26, 65535
  %28 = icmp eq i32 %27, 0
  br i1 %28, label %29, label %_ZNK8datatype4util13is_recognizerEPK4expr.exit.thread

29:                                               ; preds = %_ZNK8datatype4util14is_recognizer0EPK3app.exit.thread.i
  %30 = getelementptr inbounds nuw i8, ptr %1, i64 16
  %31 = load ptr, ptr %30, align 8, !tbaa !96
  %32 = getelementptr inbounds nuw i8, ptr %31, i64 24
  %33 = load ptr, ptr %32, align 8, !tbaa !107
  %.not.i.i.i.i4.i = icmp eq ptr %33, null
  br i1 %.not.i.i.i.i4.i, label %_ZNK8datatype4util13is_recognizerEPK4expr.exit.thread, label %_ZNK8datatype4util13is_recognizerEPK4expr.exit

_ZNK8datatype4util13is_recognizerEPK4expr.exit:   ; preds = %29
  %34 = load i32, ptr %33, align 8, !tbaa !111
  %35 = icmp eq i32 %34, %25
  %36 = getelementptr inbounds nuw i8, ptr %33, i64 4
  %37 = load i32, ptr %36, align 4
  %38 = icmp eq i32 %37, 2
  %39 = select i1 %35, i1 %38, i1 false
  br i1 %39, label %_ZNK8datatype4util13is_recognizerEPK4expr.exit.thread4, label %_ZNK8datatype4util13is_recognizerEPK4expr.exit.thread

_ZNK8datatype4util13is_recognizerEPK4expr.exit.thread4: ; preds = %_ZNK8datatype4util14is_recognizer0EPK3app.exit.i, %_ZNK8datatype4util13is_recognizerEPK4expr.exit
  %40 = phi ptr [ %16, %_ZNK8datatype4util14is_recognizer0EPK3app.exit.i ], [ %31, %_ZNK8datatype4util13is_recognizerEPK4expr.exit ]
  %41 = getelementptr inbounds nuw i8, ptr %0, i64 8
  %42 = load ptr, ptr %41, align 8, !tbaa !297
  %43 = load ptr, ptr %42, align 8, !tbaa !91
  %44 = getelementptr inbounds nuw i8, ptr %43, i64 32
  %45 = load ptr, ptr %44, align 8, !tbaa !129
  %46 = getelementptr inbounds nuw i8, ptr %1, i64 32
  %47 = load ptr, ptr %46, align 8, !tbaa !129
  %.not = icmp eq ptr %45, %47
  br i1 %.not, label %48, label %_ZNK8datatype4util13is_recognizerEPK4expr.exit.thread

48:                                               ; preds = %_ZNK8datatype4util13is_recognizerEPK4expr.exit.thread4
  %49 = tail call noundef ptr @_ZNK8datatype4util26get_recognizer_constructorEP9func_decl(ptr noundef nonnull align 8 dereferenceable(24) %4, ptr noundef nonnull %40)
  %50 = getelementptr inbounds nuw i8, ptr %0, i64 16
  %51 = load ptr, ptr %50, align 8, !tbaa !298
  %52 = load ptr, ptr %51, align 8, !tbaa !253
  %53 = icmp eq ptr %52, %49
  br i1 %53, label %_ZNK8datatype4util13is_recognizerEPK4expr.exit.thread, label %54

54:                                               ; preds = %48
  %55 = getelementptr inbounds nuw i8, ptr %0, i64 24
  %56 = load ptr, ptr %55, align 8, !tbaa !299
  %57 = load ptr, ptr %56, align 8, !tbaa !250
  %58 = icmp eq ptr %57, null
  br i1 %58, label %65, label %59

59:                                               ; preds = %54
  %60 = getelementptr inbounds i8, ptr %57, i64 -4
  %61 = load i32, ptr %60, align 4, !tbaa !78
  %62 = getelementptr inbounds i8, ptr %57, i64 -8
  %63 = load i32, ptr %62, align 4, !tbaa !78
  %64 = icmp eq i32 %61, %63
  br i1 %64, label %65, label %_ZN6vectorIP9func_declLb0EjE9push_backERKS1_.exit

65:                                               ; preds = %59, %54
  tail call void @_ZN6vectorIP9func_declLb0EjE13expand_vectorEv(ptr noundef nonnull align 8 dereferenceable(8) %56)
  %.pre.i = load ptr, ptr %56, align 8, !tbaa !250
  %.phi.trans.insert.i = getelementptr inbounds i8, ptr %.pre.i, i64 -4
  %.pre2.i = load i32, ptr %.phi.trans.insert.i, align 4, !tbaa !78
  br label %_ZN6vectorIP9func_declLb0EjE9push_backERKS1_.exit

_ZN6vectorIP9func_declLb0EjE9push_backERKS1_.exit: ; preds = %59, %65
  %66 = phi i32 [ %.pre2.i, %65 ], [ %61, %59 ]
  %67 = phi ptr [ %.pre.i, %65 ], [ %57, %59 ]
  %68 = getelementptr inbounds i8, ptr %67, i64 -4
  %69 = zext i32 %66 to i64
  %70 = getelementptr inbounds nuw ptr, ptr %67, i64 %69
  store ptr %49, ptr %70, align 8, !tbaa !253
  %71 = add i32 %66, 1
  store i32 %71, ptr %68, align 4, !tbaa !78
  br label %_ZNK8datatype4util13is_recognizerEPK4expr.exit.thread

_ZNK8datatype4util13is_recognizerEPK4expr.exit.thread: ; preds = %29, %_ZNK8datatype4util14is_recognizer0EPK3app.exit.thread.i, %2, %_ZN6vectorIP9func_declLb0EjE9push_backERKS1_.exit, %48, %_ZNK8datatype4util13is_recognizerEPK4expr.exit.thread4, %_ZNK8datatype4util13is_recognizerEPK4expr.exit
  ret void
}